target datalayout = "e-m:e-p270:32:32-p271:32:32-p272:64:64-i64:64-i128:128-f80:128-n8:16:32:64-S128"
target triple = "x86_64-pc-linux-gnu"

%class.RSCoder16 = type { ptr, ptr, i8, i32, i32, i32, ptr, ptr, ptr, i64 }

; Function Attrs: mustprogress uwtable
define void @_ZN9RSCoder166gfInitEv(ptr noundef nonnull align 8 dereferenceable(64) %0) #0 align 2 {
  %2 = alloca ptr, align 8
  %3 = alloca i32, align 4
  %4 = alloca i32, align 4
  %5 = alloca i32, align 4
  store ptr %0, ptr %2, align 8
  %6 = load ptr, ptr %2, align 8
  %7 = call noalias noundef nonnull ptr @_Znam(i64 noundef 1048564) #6
  %8 = getelementptr inbounds %class.RSCoder16, ptr %6, i32 0, i32 0
  store ptr %7, ptr %8, align 8
  %9 = call noalias noundef nonnull ptr @_Znam(i64 noundef 262144) #6
  %10 = getelementptr inbounds %class.RSCoder16, ptr %6, i32 0, i32 1
  store ptr %9, ptr %10, align 8
  store i32 0, ptr %3, align 4
  store i32 1, ptr %4, align 4
  br label %11

11:                                               ; preds = %42, %1
  %12 = load i32, ptr %3, align 4
  %13 = icmp ult i32 %12, 65535
  br i1 %13, label %14, label %45

14:                                               ; preds = %11
  %15 = load i32, ptr %3, align 4
  %16 = getelementptr inbounds %class.RSCoder16, ptr %6, i32 0, i32 1
  %17 = load ptr, ptr %16, align 8
  %18 = load i32, ptr %4, align 4
  %19 = zext i32 %18 to i64
  %20 = getelementptr inbounds i32, ptr %17, i64 %19
  store i32 %15, ptr %20, align 4
  %21 = load i32, ptr %4, align 4
  %22 = getelementptr inbounds %class.RSCoder16, ptr %6, i32 0, i32 0
  %23 = load ptr, ptr %22, align 8
  %24 = load i32, ptr %3, align 4
  %25 = zext i32 %24 to i64
  %26 = getelementptr inbounds i32, ptr %23, i64 %25
  store i32 %21, ptr %26, align 4
  %27 = load i32, ptr %4, align 4
  %28 = getelementptr inbounds %class.RSCoder16, ptr %6, i32 0, i32 0
  %29 = load ptr, ptr %28, align 8
  %30 = load i32, ptr %3, align 4
  %31 = add i32 %30, 65535
  %32 = zext i32 %31 to i64
  %33 = getelementptr inbounds i32, ptr %29, i64 %32
  store i32 %27, ptr %33, align 4
  %34 = load i32, ptr %4, align 4
  %35 = shl i32 %34, 1
  store i32 %35, ptr %4, align 4
  %36 = load i32, ptr %4, align 4
  %37 = icmp ugt i32 %36, 65535
  br i1 %37, label %38, label %41

38:                                               ; preds = %14
  %39 = load i32, ptr %4, align 4
  %40 = xor i32 %39, 69643
  store i32 %40, ptr %4, align 4
  br label %41

41:                                               ; preds = %38, %14
  br label %42

42:                                               ; preds = %41
  %43 = load i32, ptr %3, align 4
  %44 = add i32 %43, 1
  store i32 %44, ptr %3, align 4
  br label %11, !llvm.loop !4

45:                                               ; preds = %11
  %46 = getelementptr inbounds %class.RSCoder16, ptr %6, i32 0, i32 1
  %47 = load ptr, ptr %46, align 8
  %48 = getelementptr inbounds i32, ptr %47, i64 0
  store i32 131070, ptr %48, align 4
  store i32 131070, ptr %5, align 4
  br label %49

49:                                               ; preds = %58, %45
  %50 = load i32, ptr %5, align 4
  %51 = icmp ule i32 %50, 262140
  br i1 %51, label %52, label %61

52:                                               ; preds = %49
  %53 = getelementptr inbounds %class.RSCoder16, ptr %6, i32 0, i32 0
  %54 = load ptr, ptr %53, align 8
  %55 = load i32, ptr %5, align 4
  %56 = zext i32 %55 to i64
  %57 = getelementptr inbounds i32, ptr %54, i64 %56
  store i32 0, ptr %57, align 4
  br label %58

58:                                               ; preds = %52
  %59 = load i32, ptr %5, align 4
  %60 = add i32 %59, 1
  store i32 %60, ptr %5, align 4
  br label %49, !llvm.loop !6

61:                                               ; preds = %49
  ret void
}