; Function Attrs: mustprogress uwtable
define void @_ZN9RSCoder166gfInitEv(ptr nocapture noundef nonnull align 8 dereferenceable(64) %0) local_unnamed_addr #0 align 2 {
  %2 = tail call noalias noundef nonnull dereferenceable(1048564) ptr @_Znam(i64 noundef 1048564) #6
  store ptr %2, ptr %0, align 8
  %3 = tail call noalias noundef nonnull dereferenceable(262144) ptr @_Znam(i64 noundef 262144) #6
  %4 = getelementptr inbounds i8, ptr %0, i64 8
  store ptr %3, ptr %4, align 8
  br label %5

5:                                                ; preds = %1, %5
  %indvars.iv = phi i64 [ 0, %1 ], [ %indvars.iv.next, %5 ]
  %.01419 = phi i32 [ 1, %1 ], [ %spec.select, %5 ]
  %6 = load ptr, ptr %4, align 8
  %7 = zext i32 %.01419 to i64
  %8 = getelementptr inbounds i32, ptr %6, i64 %7
  %9 = trunc nuw nsw i64 %indvars.iv to i32
  store i32 %9, ptr %8, align 4
  %10 = load ptr, ptr %0, align 8
  %11 = getelementptr inbounds i32, ptr %10, i64 %indvars.iv
  store i32 %.01419, ptr %11, align 4
  %12 = load ptr, ptr %0, align 8
  %13 = getelementptr i32, ptr %12, i64 %indvars.iv
  %14 = getelementptr i8, ptr %13, i64 262140
  store i32 %.01419, ptr %14, align 4
  %15 = shl i32 %.01419, 1
  %16 = icmp ugt i32 %15, 65535
  %17 = xor i32 %15, 69643
  %spec.select = select i1 %16, i32 %17, i32 %15
  %indvars.iv.next = add nuw nsw i64 %indvars.iv, 1
  %exitcond.not = icmp eq i64 %indvars.iv.next, 65535
  br i1 %exitcond.not, label %18, label %5, !llvm.loop !4

18:                                               ; preds = %5
  %19 = load ptr, ptr %4, align 8
  store i32 131070, ptr %19, align 4
  br label %20

20:                                               ; preds = %18, %20
  %indvars.iv22 = phi i64 [ 131070, %18 ], [ %indvars.iv.next23, %20 ]
  %21 = load ptr, ptr %0, align 8
  %22 = getelementptr inbounds i32, ptr %21, i64 %indvars.iv22
  store i32 0, ptr %22, align 4
  %indvars.iv.next23 = add nuw nsw i64 %indvars.iv22, 1
  %exitcond25.not = icmp eq i64 %indvars.iv.next23, 262141
  br i1 %exitcond25.not, label %23, label %20, !llvm.loop !6

23:                                               ; preds = %20
  ret void
}